Certificate:
    Data:
        Version: 3 (0x2)
        Serial Number: 4 (0x4)
        Signature Algorithm: sha1WithRSAEncryption
        Issuer: C=BA, ST=RS, L=Banja Luka, O=Elektrotehnicki fakultet, OU=ETF, CN=CA tijelo/emailAddress=ca@mail.com
        Validity
            Not Before: Apr 27 12:34:05 2021 GMT
            Not After : Apr 27 12:34:05 2022 GMT
        Subject: C=BA, ST=RS, O=Elektrotehnicki fakultet, OU=ETF, CN=Ognjen Tomanic/emailAddress=ognjen.tomanic@email.com
        Subject Public Key Info:
            Public Key Algorithm: rsaEncryption
                RSA Public-Key: (2048 bit)
                Modulus:
                    00:c0:3d:87:15:8b:19:2d:68:20:25:8d:71:d2:3b:
                    36:97:60:e8:b9:b1:b2:94:d8:0d:32:ef:27:56:b9:
                    e0:8e:37:c2:08:c1:c3:87:13:43:a6:45:01:b2:b0:
                    59:20:e5:a1:45:42:56:67:74:97:2a:c9:1d:8d:65:
                    98:84:52:ce:07:8a:f7:3f:58:9d:3f:11:6c:22:f5:
                    c0:6c:13:ff:5f:e7:60:2b:2c:6e:b0:01:d7:c8:a5:
                    5a:2f:e0:f0:69:09:22:18:d2:30:cd:43:e7:1b:f6:
                    ce:be:8b:1b:df:fb:4b:b0:e1:a2:85:1e:21:3f:9f:
                    83:23:e4:7f:62:59:6c:55:81:07:69:8c:81:1d:63:
                    39:85:46:86:07:67:dd:77:72:5d:35:ca:6e:ba:4c:
                    ba:40:44:c1:14:2e:83:f7:42:24:fa:4f:d9:b7:4c:
                    e0:f8:56:bc:4d:d8:41:f5:03:aa:3d:b4:f0:a5:ed:
                    5d:84:f9:4e:54:f0:7a:47:0c:d5:a9:5f:dc:17:8b:
                    ac:96:9e:de:dd:16:77:d9:ba:cd:6c:ee:1e:3a:cf:
                    b7:96:6d:cb:c5:f7:9b:0a:f5:b0:37:c7:aa:f1:31:
                    55:a4:d4:77:a5:d5:54:0a:09:af:7f:e5:49:b9:fa:
                    0f:62:cc:09:ae:e7:0b:fc:d1:00:0e:ed:50:fb:00:
                    ee:63
                Exponent: 65537 (0x10001)
        X509v3 extensions:
            X509v3 Basic Constraints: 
                CA:FALSE
            X509v3 Key Usage: 
                Digital Signature
            X509v3 Extended Key Usage: 
                TLS Web Client Authentication, TLS Web Server Authentication
            Netscape Comment: 
                OpenSSL Generated Certificate
            X509v3 Subject Key Identifier: 
                59:77:B7:9E:14:69:73:6A:D7:6E:25:AF:09:41:7B:2B:82:CF:53:1C
            X509v3 Authority Key Identifier: 
                keyid:4F:F1:74:AE:94:B7:05:2B:FC:B9:B4:4F:51:32:8F:2C:CE:18:0F:27

            X509v3 CRL Distribution Points: 

                Full Name:
                  URI:http://192.168.21.89/rootcrl.pem

    Signature Algorithm: sha1WithRSAEncryption
         25:b9:a3:cb:43:18:a4:e8:ab:11:f9:ab:97:10:c5:f6:7c:fb:
         9b:fe:09:ca:a0:23:d5:15:37:3d:5e:62:27:97:ab:6e:00:b7:
         d5:c6:eb:bd:15:5a:ee:2b:78:c0:47:2b:c1:b8:2e:f2:ed:ef:
         67:ad:ad:c4:b9:78:da:af:94:eb:96:ee:24:c4:78:18:da:79:
         31:8d:16:e0:06:43:08:a1:34:a9:06:ca:75:b7:8d:03:c9:f6:
         24:81:b2:c2:89:42:9f:58:e0:f1:d1:cd:9d:d1:e6:2a:0c:7f:
         62:df:c5:de:07:9f:2b:21:37:73:69:ba:3f:65:60:96:a3:69:
         8b:74:f8:46:f1:9c:2c:fa:02:93:b8:1d:87:b7:13:8d:d9:b0:
         f6:35:ee:94:b9:ce:18:91:91:be:25:5e:5d:68:ad:db:39:d8:
         80:5c:c6:1b:2f:ac:e8:7b:08:2a:40:89:2b:ed:cc:10:be:04:
         28:dc:8a:96:b4:58:e9:7b:42:35:37:81:52:75:3a:96:5b:6a:
         b4:17:c1:61:64:7e:d9:bb:52:44:b6:82:da:fd:8b:86:4c:5d:
         66:d2:ef:20:5e:fa:99:64:f0:95:6a:6a:6d:08:0e:22:37:c1:
         3e:17:05:57:26:f8:6e:f6:98:ba:db:83:cd:b3:c3:d9:be:1d:
         4a:14:d8:53
-----BEGIN CERTIFICATE-----
MIIEdjCCA16gAwIBAgIBBDANBgkqhkiG9w0BAQUFADCBkDELMAkGA1UEBhMCQkEx
CzAJBgNVBAgTAlJTMRMwEQYDVQQHEwpCYW5qYSBMdWthMSEwHwYDVQQKExhFbGVr
dHJvdGVobmlja2kgZmFrdWx0ZXQxDDAKBgNVBAsTA0VURjESMBAGA1UEAxMJQ0Eg
dGlqZWxvMRowGAYJKoZIhvcNAQkBFgtjYUBtYWlsLmNvbTAeFw0yMTA0MjcxMjM0
MDVaFw0yMjA0MjcxMjM0MDVaMIGNMQswCQYDVQQGEwJCQTELMAkGA1UECBMCUlMx
ITAfBgNVBAoTGEVsZWt0cm90ZWhuaWNraSBmYWt1bHRldDEMMAoGA1UECxMDRVRG
MRcwFQYDVQQDEw5PZ25qZW4gVG9tYW5pYzEnMCUGCSqGSIb3DQEJARYYb2duamVu
LnRvbWFuaWNAZW1haWwuY29tMIIBIjANBgkqhkiG9w0BAQEFAAOCAQ8AMIIBCgKC
AQEAwD2HFYsZLWggJY1x0js2l2DoubGylNgNMu8nVrngjjfCCMHDhxNDpkUBsrBZ
IOWhRUJWZ3SXKskdjWWYhFLOB4r3P1idPxFsIvXAbBP/X+dgKyxusAHXyKVaL+Dw
aQkiGNIwzUPnG/bOvosb3/tLsOGihR4hP5+DI+R/YllsVYEHaYyBHWM5hUaGB2fd
d3JdNcpuuky6QETBFC6D90Ik+k/Zt0zg+Fa8TdhB9QOqPbTwpe1dhPlOVPB6RwzV
qV/cF4uslp7e3RZ32brNbO4eOs+3lm3LxfebCvWwN8eq8TFVpNR3pdVUCgmvf+VJ
ufoPYswJrucL/NEADu1Q+wDuYwIDAQABo4HbMIHYMAkGA1UdEwQCMAAwCwYDVR0P
BAQDAgeAMB0GA1UdJQQWMBQGCCsGAQUFBwMCBggrBgEFBQcDATAsBglghkgBhvhC
AQ0EHxYdT3BlblNTTCBHZW5lcmF0ZWQgQ2VydGlmaWNhdGUwHQYDVR0OBBYEFFl3
t54UaXNq124lrwlBeyuCz1McMB8GA1UdIwQYMBaAFE/xdK6UtwUr/Lm0T1EyjyzO
GA8nMDEGA1UdHwQqMCgwJqAkoCKGIGh0dHA6Ly8xOTIuMTY4LjIxLjg5L3Jvb3Rj
cmwucGVtMA0GCSqGSIb3DQEBBQUAA4IBAQAluaPLQxik6KsR+auXEMX2fPub/gnK
oCPVFTc9XmInl6tuALfVxuu9FVruK3jARyvBuC7y7e9nra3EuXjar5Trlu4kxHgY
2nkxjRbgBkMIoTSpBsp1t40DyfYkgbLCiUKfWODx0c2d0eYqDH9i38XeB58rITdz
abo/ZWCWo2mLdPhG8Zws+gKTuB2HtxON2bD2Ne6Uuc4YkZG+JV5daK3bOdiAXMYb
L6zoewgqQIkr7cwQvgQo3IqWtFjpe0I1N4FSdTqWW2q0F8FhZH7Zu1JEtoLa/YuG
TF1m0u8gXvqZZPCVamptCA4iN8E+FwVXJvhu9pi624PNs8PZvh1KFNhT
-----END CERTIFICATE-----
