Certificate:
    Data:
        Version: 3 (0x2)
        Serial Number: 1 (0x1)
        Signature Algorithm: sha1WithRSAEncryption
        Issuer: C=BA, ST=RS, L=Banja Luka, O=Elektrotehnicki fakultet, OU=ETF, CN=CA tijelo/emailAddress=ca@mail.com
        Validity
            Not Before: Apr 27 12:17:56 2021 GMT
            Not After : Apr 27 12:17:56 2022 GMT
        Subject: C=BA, ST=RS, O=Elektrotehnicki fakultet, OU=ETF, CN=korisnik1/emailAddress=korisnik1@email.com
        Subject Public Key Info:
            Public Key Algorithm: rsaEncryption
                RSA Public-Key: (2048 bit)
                Modulus:
                    00:a3:1d:0e:94:b6:30:cd:bf:e3:7b:fd:e1:c8:d3:
                    d3:0b:c4:09:3e:51:1b:77:d8:43:17:1f:eb:76:5a:
                    4c:d1:3b:29:fe:5e:38:31:e5:ea:ae:7f:a2:a8:3b:
                    e9:08:21:8a:eb:29:51:14:f5:89:96:0d:98:05:c4:
                    ec:f7:0b:e5:fa:fc:38:c5:a8:1b:ef:eb:a8:16:90:
                    30:c8:78:d5:53:15:da:c7:32:cd:83:15:96:f5:9e:
                    4f:0b:3f:c1:84:35:0f:e4:4e:0a:35:cd:90:94:cd:
                    d1:1d:84:d3:ac:9e:a5:ef:e1:1c:8d:46:c4:6c:ce:
                    0b:e1:a7:45:da:07:f4:b8:79:0c:c5:3e:a2:16:29:
                    4c:3e:ee:79:f1:4d:ae:a8:ed:cb:dc:e8:43:b5:ca:
                    d1:8b:88:9e:79:65:1d:51:bd:c3:27:1c:c3:ad:18:
                    eb:6a:e3:ea:c4:ae:e6:04:d3:6b:18:eb:e6:40:65:
                    81:fd:09:37:a3:9e:5b:17:04:a1:19:11:1b:83:21:
                    a1:2d:5f:97:96:7e:b0:09:ce:e3:51:d1:ed:6f:ae:
                    4f:af:b9:e4:e0:41:08:70:12:e7:15:49:f8:6a:02:
                    0a:a3:3f:41:44:76:73:63:d5:38:b0:b5:c5:d0:45:
                    a0:5b:00:db:8f:f0:6e:aa:7e:40:6b:24:a0:36:94:
                    a2:f5
                Exponent: 65537 (0x10001)
        X509v3 extensions:
            X509v3 Basic Constraints: 
                CA:FALSE
            X509v3 Key Usage: 
                Digital Signature
            X509v3 Extended Key Usage: 
                TLS Web Client Authentication, TLS Web Server Authentication
            Netscape Comment: 
                OpenSSL Generated Certificate
            X509v3 Subject Key Identifier: 
                DF:12:FC:B6:5E:27:E9:65:1C:F3:AF:45:71:96:D6:4D:49:3A:2F:B9
            X509v3 Authority Key Identifier: 
                keyid:4F:F1:74:AE:94:B7:05:2B:FC:B9:B4:4F:51:32:8F:2C:CE:18:0F:27

            X509v3 CRL Distribution Points: 

                Full Name:
                  URI:http://192.168.21.89/rootcrl.pem

    Signature Algorithm: sha1WithRSAEncryption
         a2:c7:7c:29:35:36:3a:cc:f0:45:f4:3f:a8:81:49:d3:04:97:
         f7:ce:b3:48:68:07:fb:da:95:a3:18:21:6f:d1:c5:88:c7:48:
         69:5b:32:fc:eb:9c:7b:28:e1:54:28:3a:1a:b7:b0:cb:b1:06:
         a9:7b:40:60:f4:ee:6c:32:d7:63:90:6f:5e:07:4f:75:46:b1:
         23:55:b2:16:85:f2:89:7b:1c:2f:ef:fc:e7:0d:4b:53:28:d8:
         56:48:84:9e:36:f8:f0:ad:41:92:c4:bb:9a:de:5c:63:03:5a:
         8e:a0:81:bd:80:6d:98:1c:5f:4f:84:d0:8f:55:b6:bf:5b:c2:
         48:cf:f2:88:9e:e5:2e:8a:70:be:26:a2:d2:31:1f:1f:e6:82:
         61:49:04:db:45:49:69:85:3f:a2:c9:ea:0e:24:f2:fe:29:a8:
         98:f2:85:51:76:d0:3a:42:b4:14:d5:d7:87:40:74:b4:a7:71:
         92:dc:93:77:60:ed:83:d8:8e:c1:67:a7:36:cf:89:69:5d:e9:
         56:2d:eb:3b:15:4c:25:02:06:2a:a2:6b:77:9e:1b:33:ec:61:
         84:01:11:88:4e:a6:e0:ed:0d:51:b8:dd:d0:c3:d4:c7:19:50:
         e9:b3:a8:b5:b7:b5:58:ba:5e:d8:f6:d5:23:47:35:da:5a:81:
         89:97:5e:85
-----BEGIN CERTIFICATE-----
MIIEbDCCA1SgAwIBAgIBATANBgkqhkiG9w0BAQUFADCBkDELMAkGA1UEBhMCQkEx
CzAJBgNVBAgTAlJTMRMwEQYDVQQHEwpCYW5qYSBMdWthMSEwHwYDVQQKExhFbGVr
dHJvdGVobmlja2kgZmFrdWx0ZXQxDDAKBgNVBAsTA0VURjESMBAGA1UEAxMJQ0Eg
dGlqZWxvMRowGAYJKoZIhvcNAQkBFgtjYUBtYWlsLmNvbTAeFw0yMTA0MjcxMjE3
NTZaFw0yMjA0MjcxMjE3NTZaMIGDMQswCQYDVQQGEwJCQTELMAkGA1UECBMCUlMx
ITAfBgNVBAoTGEVsZWt0cm90ZWhuaWNraSBmYWt1bHRldDEMMAoGA1UECxMDRVRG
MRIwEAYDVQQDEwlrb3Jpc25pazExIjAgBgkqhkiG9w0BCQEWE2tvcmlzbmlrMUBl
bWFpbC5jb20wggEiMA0GCSqGSIb3DQEBAQUAA4IBDwAwggEKAoIBAQCjHQ6UtjDN
v+N7/eHI09MLxAk+URt32EMXH+t2WkzROyn+Xjgx5equf6KoO+kIIYrrKVEU9YmW
DZgFxOz3C+X6/DjFqBvv66gWkDDIeNVTFdrHMs2DFZb1nk8LP8GENQ/kTgo1zZCU
zdEdhNOsnqXv4RyNRsRszgvhp0XaB/S4eQzFPqIWKUw+7nnxTa6o7cvc6EO1ytGL
iJ55ZR1RvcMnHMOtGOtq4+rEruYE02sY6+ZAZYH9CTejnlsXBKEZERuDIaEtX5eW
frAJzuNR0e1vrk+vueTgQQhwEucVSfhqAgqjP0FEdnNj1TiwtcXQRaBbANuP8G6q
fkBrJKA2lKL1AgMBAAGjgdswgdgwCQYDVR0TBAIwADALBgNVHQ8EBAMCB4AwHQYD
VR0lBBYwFAYIKwYBBQUHAwIGCCsGAQUFBwMBMCwGCWCGSAGG+EIBDQQfFh1PcGVu
U1NMIEdlbmVyYXRlZCBDZXJ0aWZpY2F0ZTAdBgNVHQ4EFgQU3xL8tl4n6WUc869F
cZbWTUk6L7kwHwYDVR0jBBgwFoAUT/F0rpS3BSv8ubRPUTKPLM4YDycwMQYDVR0f
BCowKDAmoCSgIoYgaHR0cDovLzE5Mi4xNjguMjEuODkvcm9vdGNybC5wZW0wDQYJ
KoZIhvcNAQEFBQADggEBAKLHfCk1NjrM8EX0P6iBSdMEl/fOs0hoB/valaMYIW/R
xYjHSGlbMvzrnHso4VQoOhq3sMuxBql7QGD07mwy12OQb14HT3VGsSNVshaF8ol7
HC/v/OcNS1Mo2FZIhJ42+PCtQZLEu5reXGMDWo6ggb2AbZgcX0+E0I9Vtr9bwkjP
8oie5S6KcL4motIxHx/mgmFJBNtFSWmFP6LJ6g4k8v4pqJjyhVF20DpCtBTV14dA
dLSncZLck3dg7YPYjsFnpzbPiWld6VYt6zsVTCUCBiqia3eeGzPsYYQBEYhOpuDt
DVG43dDD1McZUOmzqLW3tVi6Xtj21SNHNdpagYmXXoU=
-----END CERTIFICATE-----
