Certificate:
    Data:
        Version: 3 (0x2)
        Serial Number: 6 (0x6)
        Signature Algorithm: sha1WithRSAEncryption
        Issuer: C=BA, ST=RS, L=Banja Luka, O=Elektrotehnicki fakultet, OU=ETF, CN=CA tijelo/emailAddress=ca@mail.com
        Validity
            Not Before: Oct  3 16:04:51 2021 GMT
            Not After : Oct  4 16:04:51 2021 GMT
        Subject: C=BA, ST=RS, O=Elektrotehnicki fakultet, OU=ETF, CN=korisnik5/emailAddress=korisnik5@mail.com
        Subject Public Key Info:
            Public Key Algorithm: rsaEncryption
                RSA Public-Key: (2048 bit)
                Modulus:
                    00:bb:f8:7d:a3:75:f4:ef:82:22:2b:05:44:44:93:
                    80:35:30:b9:b0:a0:94:eb:19:60:49:aa:7c:87:90:
                    b8:1a:78:c9:19:c0:82:4a:f6:6b:bc:68:97:b1:26:
                    fb:c6:a2:4c:88:c2:00:a3:3f:af:ba:d1:2f:98:a4:
                    fb:d0:ac:cd:b9:2b:fb:76:93:73:73:77:d5:a0:5b:
                    15:8a:4b:64:03:01:ef:ad:2b:1a:8e:53:fa:87:aa:
                    61:b8:ac:79:40:0e:2f:19:94:c1:28:e6:16:23:44:
                    88:ef:ad:3b:ed:b1:d5:f3:21:a8:bd:01:8b:6e:e2:
                    97:87:82:c4:c3:f1:1f:01:9c:fd:66:16:ca:9d:29:
                    de:6c:7d:26:fe:38:b7:7d:25:06:11:49:98:35:c1:
                    80:dd:2b:bf:fc:46:9b:29:22:57:39:c6:7a:94:76:
                    cb:56:b8:74:b7:3f:7b:e0:43:1f:54:ba:ea:d9:06:
                    74:cc:80:0c:28:aa:7f:11:46:e7:67:ae:39:74:85:
                    8d:ae:81:7b:fe:34:68:74:a0:80:10:6c:32:de:28:
                    d4:ae:ba:cb:8e:39:56:6e:8a:3d:b1:af:dc:00:5a:
                    80:49:cd:7a:de:ed:0a:3c:a1:65:2c:cd:1f:da:83:
                    4c:5e:f1:6f:8e:7d:36:3f:15:3c:94:13:08:35:0e:
                    1f:e5
                Exponent: 65537 (0x10001)
        X509v3 extensions:
            X509v3 Basic Constraints: 
                CA:FALSE
            X509v3 Key Usage: 
                Digital Signature
            X509v3 Extended Key Usage: 
                TLS Web Client Authentication, TLS Web Server Authentication
            Netscape Comment: 
                OpenSSL Generated Certificate
            X509v3 Subject Key Identifier: 
                D4:BD:8D:E3:5A:66:84:C6:70:67:C8:F0:62:FD:EF:0C:47:E0:F5:A9
            X509v3 Authority Key Identifier: 
                keyid:4F:F1:74:AE:94:B7:05:2B:FC:B9:B4:4F:51:32:8F:2C:CE:18:0F:27

            X509v3 CRL Distribution Points: 

                Full Name:
                  URI:http://192.168.21.89/rootcrl.pem

    Signature Algorithm: sha1WithRSAEncryption
         10:2a:85:00:dc:2f:9b:14:03:4d:5e:01:65:f7:64:87:ee:38:
         22:45:86:5a:4b:5e:07:32:d9:06:96:f1:f2:e0:5d:82:b8:ce:
         5b:12:01:ef:e6:95:a7:c4:2b:85:74:11:77:b7:fc:ce:05:02:
         fe:5c:1b:88:ec:02:c6:71:e3:41:c9:cf:05:ea:5b:8c:37:f0:
         e3:94:3f:ad:18:f8:4d:97:20:11:7a:d8:5e:2d:5d:d3:9a:5f:
         f5:01:28:b2:ea:65:0f:d7:25:12:01:a3:4f:10:00:9b:e0:2b:
         ce:e6:23:ac:2e:33:55:cc:a0:b9:dd:1b:2c:37:5f:9c:b4:1f:
         71:1a:19:ad:f5:e0:fe:97:de:7e:1b:71:57:31:82:9b:3d:95:
         a1:58:88:96:81:6d:7d:e6:85:74:19:19:dd:64:b1:c9:72:fa:
         25:18:68:a8:66:ba:60:d2:b9:13:f5:6d:40:6a:40:41:ce:17:
         b7:98:a3:09:8e:2a:ed:2f:29:d1:eb:f1:9c:fd:24:5d:75:2f:
         7d:6e:05:8a:c5:36:ad:79:99:38:4c:f9:f0:8e:50:9e:9b:38:
         86:8c:bd:67:6e:ff:ec:ee:a8:c0:42:ab:83:a8:14:0f:4e:78:
         85:20:d0:be:44:46:9d:53:ee:19:b6:34:7c:16:fe:6e:33:1e:
         f4:df:20:48
-----BEGIN CERTIFICATE-----
MIIEazCCA1OgAwIBAgIBBjANBgkqhkiG9w0BAQUFADCBkDELMAkGA1UEBhMCQkEx
CzAJBgNVBAgTAlJTMRMwEQYDVQQHEwpCYW5qYSBMdWthMSEwHwYDVQQKExhFbGVr
dHJvdGVobmlja2kgZmFrdWx0ZXQxDDAKBgNVBAsTA0VURjESMBAGA1UEAxMJQ0Eg
dGlqZWxvMRowGAYJKoZIhvcNAQkBFgtjYUBtYWlsLmNvbTAeFw0yMTEwMDMxNjA0
NTFaFw0yMTEwMDQxNjA0NTFaMIGCMQswCQYDVQQGEwJCQTELMAkGA1UECBMCUlMx
ITAfBgNVBAoTGEVsZWt0cm90ZWhuaWNraSBmYWt1bHRldDEMMAoGA1UECxMDRVRG
MRIwEAYDVQQDEwlrb3Jpc25pazUxITAfBgkqhkiG9w0BCQEWEmtvcmlzbmlrNUBt
YWlsLmNvbTCCASIwDQYJKoZIhvcNAQEBBQADggEPADCCAQoCggEBALv4faN19O+C
IisFRESTgDUwubCglOsZYEmqfIeQuBp4yRnAgkr2a7xol7Em+8aiTIjCAKM/r7rR
L5ik+9Cszbkr+3aTc3N31aBbFYpLZAMB760rGo5T+oeqYbiseUAOLxmUwSjmFiNE
iO+tO+2x1fMhqL0Bi27il4eCxMPxHwGc/WYWyp0p3mx9Jv44t30lBhFJmDXBgN0r
v/xGmykiVznGepR2y1a4dLc/e+BDH1S66tkGdMyADCiqfxFG52euOXSFja6Be/40
aHSggBBsMt4o1K66y445Vm6KPbGv3ABagEnNet7tCjyhZSzNH9qDTF7xb459Nj8V
PJQTCDUOH+UCAwEAAaOB2zCB2DAJBgNVHRMEAjAAMAsGA1UdDwQEAwIHgDAdBgNV
HSUEFjAUBggrBgEFBQcDAgYIKwYBBQUHAwEwLAYJYIZIAYb4QgENBB8WHU9wZW5T
U0wgR2VuZXJhdGVkIENlcnRpZmljYXRlMB0GA1UdDgQWBBTUvY3jWmaExnBnyPBi
/e8MR+D1qTAfBgNVHSMEGDAWgBRP8XSulLcFK/y5tE9RMo8szhgPJzAxBgNVHR8E
KjAoMCagJKAihiBodHRwOi8vMTkyLjE2OC4yMS44OS9yb290Y3JsLnBlbTANBgkq
hkiG9w0BAQUFAAOCAQEAECqFANwvmxQDTV4BZfdkh+44IkWGWkteBzLZBpbx8uBd
grjOWxIB7+aVp8QrhXQRd7f8zgUC/lwbiOwCxnHjQcnPBepbjDfw45Q/rRj4TZcg
EXrYXi1d05pf9QEosuplD9clEgGjTxAAm+ArzuYjrC4zVcygud0bLDdfnLQfcRoZ
rfXg/pfefhtxVzGCmz2VoViIloFtfeaFdBkZ3WSxyXL6JRhoqGa6YNK5E/VtQGpA
Qc4Xt5ijCY4q7S8p0evxnP0kXXUvfW4FisU2rXmZOEz58I5Qnps4hoy9Z27/7O6o
wEKrg6gUD054hSDQvkRGnVPuGbY0fBb+bjMe9N8gSA==
-----END CERTIFICATE-----
