Certificate:
    Data:
        Version: 3 (0x2)
        Serial Number: 5 (0x5)
        Signature Algorithm: sha1WithRSAEncryption
        Issuer: C=BA, ST=RS, L=Banja Luka, O=Elektrotehnicki fakultet, OU=ETF, CN=CA tijelo/emailAddress=ca@mail.com
        Validity
            Not Before: Oct  3 15:36:42 2021 GMT
            Not After : Oct  3 15:36:42 2022 GMT
        Subject: C=BA, ST=RS, O=Elektrotehnicki fakultet, OU=ETF, CN=korisnik4/emailAddress=korisnik4@mail.com
        Subject Public Key Info:
            Public Key Algorithm: rsaEncryption
                RSA Public-Key: (2048 bit)
                Modulus:
                    00:b8:f1:80:3a:ba:29:e6:ae:ff:3a:1f:d8:9a:b4:
                    15:3a:a9:03:a6:0e:c9:3c:06:d4:92:09:c4:10:8f:
                    11:4f:31:5b:cd:a0:2b:51:04:29:85:22:c0:a2:a9:
                    5d:0a:78:fb:60:11:dc:02:58:9b:f0:bb:f9:6e:e7:
                    a7:ae:8e:bc:63:ed:3a:aa:2a:7b:c6:2f:9e:85:da:
                    15:2d:72:90:43:5f:83:b4:33:1a:a8:b9:6e:82:27:
                    d6:2f:54:ed:9b:92:9d:b9:7c:a2:a8:93:f9:36:02:
                    62:db:28:d5:6d:7f:6b:ee:90:66:0d:6a:bc:7b:b1:
                    ac:70:30:45:f4:c5:5d:f2:20:03:1f:be:3f:2b:48:
                    9e:51:a2:25:85:31:0d:a8:c1:79:e2:82:bc:4d:de:
                    b7:0a:ee:29:cb:fd:68:4b:b5:ed:ce:95:65:1b:c9:
                    f5:00:c4:5a:4e:0f:2c:f4:21:0a:4d:72:72:52:cc:
                    48:5d:e5:e6:5f:ae:17:6a:b5:04:d0:33:1c:4e:0a:
                    a8:25:26:6d:db:63:cd:84:dd:8f:77:28:13:db:bd:
                    1a:fd:62:c0:22:e2:ab:e1:2e:11:21:f5:cc:68:ee:
                    05:62:04:02:4d:29:14:31:7f:a8:ed:56:00:66:e2:
                    95:23:7f:57:0a:d3:13:88:27:f0:05:32:07:1a:6c:
                    6c:03
                Exponent: 65537 (0x10001)
        X509v3 extensions:
            X509v3 Basic Constraints: 
                CA:FALSE
            X509v3 Key Usage: 
                Digital Signature
            X509v3 Extended Key Usage: 
                TLS Web Client Authentication, TLS Web Server Authentication
            Netscape Comment: 
                OpenSSL Generated Certificate
            X509v3 Subject Key Identifier: 
                E9:78:60:98:9A:BA:63:8A:2C:C4:E3:BB:B6:D4:3B:E7:AC:B5:BD:26
            X509v3 Authority Key Identifier: 
                keyid:4F:F1:74:AE:94:B7:05:2B:FC:B9:B4:4F:51:32:8F:2C:CE:18:0F:27

            X509v3 CRL Distribution Points: 

                Full Name:
                  URI:http://192.168.21.89/rootcrl.pem

    Signature Algorithm: sha1WithRSAEncryption
         46:bf:2f:9b:f0:71:e4:a2:34:25:0f:ef:f6:c1:1b:5e:35:4b:
         63:1c:13:80:1a:ab:02:98:79:f9:60:21:4b:5e:5d:c9:d3:17:
         fb:b7:a0:0f:72:92:2b:0a:56:af:12:0e:68:33:2e:59:a5:7c:
         30:7b:af:9b:b8:53:87:3b:a4:82:0d:9e:df:6c:be:e6:3a:7d:
         4b:57:8b:87:3a:8c:30:3d:aa:10:fb:19:84:ce:40:8e:64:b4:
         67:55:aa:f6:7d:7a:b8:da:1d:a5:fa:18:22:7f:ac:b1:01:aa:
         8c:30:c9:bd:b4:19:c1:c0:8d:79:1c:18:cb:ab:92:af:7a:35:
         82:2f:25:f1:25:6d:a0:7d:00:e5:06:7e:b9:00:73:e1:b5:9f:
         9c:68:5f:f8:2f:51:87:73:fa:3f:8e:74:12:75:1f:7d:02:b3:
         a1:ca:48:3a:13:8d:64:b5:4d:60:f5:f9:d0:da:d3:cb:b6:36:
         6a:63:fb:49:34:89:62:65:34:9b:7c:40:2f:df:fe:b1:22:03:
         bf:57:b1:28:91:c9:ca:e9:c2:05:32:b3:66:cf:03:a4:a3:98:
         59:0e:3c:2b:9d:7e:05:6b:8b:6a:4c:e8:e8:cf:96:f9:5f:f1:
         9a:65:e0:c5:eb:85:5b:98:20:b9:f0:74:6b:b1:c9:48:09:e3:
         77:53:ce:e6
-----BEGIN CERTIFICATE-----
MIIEazCCA1OgAwIBAgIBBTANBgkqhkiG9w0BAQUFADCBkDELMAkGA1UEBhMCQkEx
CzAJBgNVBAgTAlJTMRMwEQYDVQQHEwpCYW5qYSBMdWthMSEwHwYDVQQKExhFbGVr
dHJvdGVobmlja2kgZmFrdWx0ZXQxDDAKBgNVBAsTA0VURjESMBAGA1UEAxMJQ0Eg
dGlqZWxvMRowGAYJKoZIhvcNAQkBFgtjYUBtYWlsLmNvbTAeFw0yMTEwMDMxNTM2
NDJaFw0yMjEwMDMxNTM2NDJaMIGCMQswCQYDVQQGEwJCQTELMAkGA1UECBMCUlMx
ITAfBgNVBAoTGEVsZWt0cm90ZWhuaWNraSBmYWt1bHRldDEMMAoGA1UECxMDRVRG
MRIwEAYDVQQDEwlrb3Jpc25pazQxITAfBgkqhkiG9w0BCQEWEmtvcmlzbmlrNEBt
YWlsLmNvbTCCASIwDQYJKoZIhvcNAQEBBQADggEPADCCAQoCggEBALjxgDq6Keau
/zof2Jq0FTqpA6YOyTwG1JIJxBCPEU8xW82gK1EEKYUiwKKpXQp4+2AR3AJYm/C7
+W7np66OvGPtOqoqe8YvnoXaFS1ykENfg7QzGqi5boIn1i9U7ZuSnbl8oqiT+TYC
Ytso1W1/a+6QZg1qvHuxrHAwRfTFXfIgAx++PytInlGiJYUxDajBeeKCvE3etwru
Kcv9aEu17c6VZRvJ9QDEWk4PLPQhCk1yclLMSF3l5l+uF2q1BNAzHE4KqCUmbdtj
zYTdj3coE9u9Gv1iwCLiq+EuESH1zGjuBWIEAk0pFDF/qO1WAGbilSN/VwrTE4gn
8AUyBxpsbAMCAwEAAaOB2zCB2DAJBgNVHRMEAjAAMAsGA1UdDwQEAwIHgDAdBgNV
HSUEFjAUBggrBgEFBQcDAgYIKwYBBQUHAwEwLAYJYIZIAYb4QgENBB8WHU9wZW5T
U0wgR2VuZXJhdGVkIENlcnRpZmljYXRlMB0GA1UdDgQWBBTpeGCYmrpjiizE47u2
1DvnrLW9JjAfBgNVHSMEGDAWgBRP8XSulLcFK/y5tE9RMo8szhgPJzAxBgNVHR8E
KjAoMCagJKAihiBodHRwOi8vMTkyLjE2OC4yMS44OS9yb290Y3JsLnBlbTANBgkq
hkiG9w0BAQUFAAOCAQEARr8vm/Bx5KI0JQ/v9sEbXjVLYxwTgBqrAph5+WAhS15d
ydMX+7egD3KSKwpWrxIOaDMuWaV8MHuvm7hThzukgg2e32y+5jp9S1eLhzqMMD2q
EPsZhM5AjmS0Z1Wq9n16uNodpfoYIn+ssQGqjDDJvbQZwcCNeRwYy6uSr3o1gi8l
8SVtoH0A5QZ+uQBz4bWfnGhf+C9Rh3P6P450EnUffQKzocpIOhONZLVNYPX50NrT
y7Y2amP7STSJYmU0m3xAL9/+sSIDv1exKJHJyunCBTKzZs8DpKOYWQ48K51+BWuL
akzo6M+W+V/xmmXgxeuFW5ggufB0a7HJSAnjd1PO5g==
-----END CERTIFICATE-----
