Certificate:
    Data:
        Version: 3 (0x2)
        Serial Number: 3 (0x3)
        Signature Algorithm: sha1WithRSAEncryption
        Issuer: C=BA, ST=RS, L=Banja Luka, O=Elektrotehnicki fakultet, OU=ETF, CN=CA tijelo/emailAddress=ca@mail.com
        Validity
            Not Before: Apr 27 12:22:50 2021 GMT
            Not After : Apr 27 12:22:50 2022 GMT
        Subject: C=BA, ST=RS, O=Elektrotehnicki fakultet, OU=ETF, CN=korisnik3/emailAddress=korisnik3@email.com
        Subject Public Key Info:
            Public Key Algorithm: rsaEncryption
                RSA Public-Key: (2048 bit)
                Modulus:
                    00:db:0d:a7:87:1a:1f:ae:97:65:b3:1e:da:60:d1:
                    c3:17:f3:f3:ef:c4:50:9d:71:02:36:d0:e1:77:18:
                    73:45:4b:b8:1a:54:92:fc:2c:0f:9a:45:b3:41:26:
                    51:8b:bf:78:20:91:41:18:37:d6:fc:85:e0:0a:48:
                    7e:3a:a0:d2:0d:48:e9:4e:2c:c6:07:08:c5:c8:6a:
                    1b:7f:18:10:20:d3:d4:84:32:7c:7f:8a:8e:1c:bb:
                    83:26:2f:05:d8:57:7e:0d:18:4e:e9:61:e0:43:99:
                    0b:00:62:6c:4f:b5:3a:18:66:8f:1b:0d:8d:0c:96:
                    0d:f0:c0:a4:dc:c2:70:0f:c5:c2:8e:4c:af:79:9d:
                    d6:40:46:30:78:46:a2:6c:b5:81:51:38:44:ab:31:
                    45:e4:e7:e6:e6:bb:4a:af:72:41:46:95:c9:b7:a9:
                    35:66:88:5d:d7:6f:8b:bc:2a:ad:f8:1c:94:5d:44:
                    28:98:14:c7:4f:ef:ef:c8:fc:54:66:6e:d1:81:24:
                    dc:be:61:af:d0:84:a3:22:fb:0b:f7:c6:2f:bc:96:
                    6d:3f:75:1c:ff:1e:4d:f8:48:98:52:37:d4:f3:9b:
                    fa:2d:1c:ba:8b:27:ae:9c:ef:42:4b:03:cd:e1:c8:
                    e0:b1:ee:1b:ad:71:34:96:d6:c0:02:b6:ff:f7:0a:
                    38:8d
                Exponent: 65537 (0x10001)
        X509v3 extensions:
            X509v3 Basic Constraints: 
                CA:FALSE
            X509v3 Key Usage: 
                Digital Signature
            X509v3 Extended Key Usage: 
                TLS Web Client Authentication, TLS Web Server Authentication
            Netscape Comment: 
                OpenSSL Generated Certificate
            X509v3 Subject Key Identifier: 
                55:4E:EE:C8:3D:81:D9:6E:79:76:8F:6E:AD:AD:54:28:6A:5E:D3:75
            X509v3 Authority Key Identifier: 
                keyid:4F:F1:74:AE:94:B7:05:2B:FC:B9:B4:4F:51:32:8F:2C:CE:18:0F:27

            X509v3 CRL Distribution Points: 

                Full Name:
                  URI:http://192.168.21.89/rootcrl.pem

    Signature Algorithm: sha1WithRSAEncryption
         c8:8a:c3:a8:14:f3:0d:91:a0:6f:dd:96:83:6a:1d:36:47:d6:
         d2:ca:36:be:42:9b:d6:e3:6e:7a:e1:4e:a8:33:bb:fb:ef:db:
         a7:3e:f4:88:80:bf:28:95:4d:4a:a0:fd:32:e4:a3:27:bd:9b:
         56:7e:40:66:a8:39:fe:be:6f:83:40:09:a9:73:71:ff:70:fa:
         b8:11:79:53:f9:5b:43:e6:a9:23:68:99:e4:95:66:33:31:2f:
         2b:7f:58:1c:d6:7b:e6:8a:0d:98:fd:e5:29:1f:e1:2d:2f:bf:
         01:a4:98:97:ae:b5:b8:45:64:95:02:50:3d:c3:8c:c0:66:ef:
         39:13:5e:18:4d:9d:d1:9b:62:17:32:11:e4:7d:3d:ce:c0:37:
         3f:32:81:f5:fe:e6:bb:5e:3c:e8:71:45:98:8a:44:4e:55:8b:
         ca:dc:d4:01:66:4e:9f:9a:b2:3c:31:30:50:63:8e:a0:8d:b4:
         ff:ce:8f:29:74:f7:e9:f6:8d:75:61:ac:a1:43:1a:74:35:fa:
         aa:bf:10:03:3e:d9:2f:69:be:18:54:c0:e4:b8:85:1a:79:36:
         eb:90:a3:78:4e:31:fe:77:24:cd:58:ef:62:4f:20:56:9c:d6:
         49:fb:64:56:05:be:c5:f2:70:b4:9c:cd:c0:75:6c:65:c7:e5:
         8a:4d:26:e5
-----BEGIN CERTIFICATE-----
MIIEbDCCA1SgAwIBAgIBAzANBgkqhkiG9w0BAQUFADCBkDELMAkGA1UEBhMCQkEx
CzAJBgNVBAgTAlJTMRMwEQYDVQQHEwpCYW5qYSBMdWthMSEwHwYDVQQKExhFbGVr
dHJvdGVobmlja2kgZmFrdWx0ZXQxDDAKBgNVBAsTA0VURjESMBAGA1UEAxMJQ0Eg
dGlqZWxvMRowGAYJKoZIhvcNAQkBFgtjYUBtYWlsLmNvbTAeFw0yMTA0MjcxMjIy
NTBaFw0yMjA0MjcxMjIyNTBaMIGDMQswCQYDVQQGEwJCQTELMAkGA1UECBMCUlMx
ITAfBgNVBAoTGEVsZWt0cm90ZWhuaWNraSBmYWt1bHRldDEMMAoGA1UECxMDRVRG
MRIwEAYDVQQDEwlrb3Jpc25pazMxIjAgBgkqhkiG9w0BCQEWE2tvcmlzbmlrM0Bl
bWFpbC5jb20wggEiMA0GCSqGSIb3DQEBAQUAA4IBDwAwggEKAoIBAQDbDaeHGh+u
l2WzHtpg0cMX8/PvxFCdcQI20OF3GHNFS7gaVJL8LA+aRbNBJlGLv3ggkUEYN9b8
heAKSH46oNINSOlOLMYHCMXIaht/GBAg09SEMnx/io4cu4MmLwXYV34NGE7pYeBD
mQsAYmxPtToYZo8bDY0Mlg3wwKTcwnAPxcKOTK95ndZARjB4RqJstYFROESrMUXk
5+bmu0qvckFGlcm3qTVmiF3Xb4u8Kq34HJRdRCiYFMdP7+/I/FRmbtGBJNy+Ya/Q
hKMi+wv3xi+8lm0/dRz/Hk34SJhSN9Tzm/otHLqLJ66c70JLA83hyOCx7hutcTSW
1sACtv/3CjiNAgMBAAGjgdswgdgwCQYDVR0TBAIwADALBgNVHQ8EBAMCB4AwHQYD
VR0lBBYwFAYIKwYBBQUHAwIGCCsGAQUFBwMBMCwGCWCGSAGG+EIBDQQfFh1PcGVu
U1NMIEdlbmVyYXRlZCBDZXJ0aWZpY2F0ZTAdBgNVHQ4EFgQUVU7uyD2B2W55do9u
ra1UKGpe03UwHwYDVR0jBBgwFoAUT/F0rpS3BSv8ubRPUTKPLM4YDycwMQYDVR0f
BCowKDAmoCSgIoYgaHR0cDovLzE5Mi4xNjguMjEuODkvcm9vdGNybC5wZW0wDQYJ
KoZIhvcNAQEFBQADggEBAMiKw6gU8w2RoG/dloNqHTZH1tLKNr5Cm9bjbnrhTqgz
u/vv26c+9IiAvyiVTUqg/TLkoye9m1Z+QGaoOf6+b4NACalzcf9w+rgReVP5W0Pm
qSNomeSVZjMxLyt/WBzWe+aKDZj95Skf4S0vvwGkmJeutbhFZJUCUD3DjMBm7zkT
XhhNndGbYhcyEeR9Pc7ANz8ygfX+5rtePOhxRZiKRE5Vi8rc1AFmTp+asjwxMFBj
jqCNtP/Ojyl09+n2jXVhrKFDGnQ1+qq/EAM+2S9pvhhUwOS4hRp5NuuQo3hOMf53
JM1Y72JPIFac1kn7ZFYFvsXycLSczcB1bGXH5YpNJuU=
-----END CERTIFICATE-----
