Certificate:
    Data:
        Version: 3 (0x2)
        Serial Number: 2 (0x2)
        Signature Algorithm: sha1WithRSAEncryption
        Issuer: C=BA, ST=RS, L=Banja Luka, O=Elektrotehnicki fakultet, OU=ETF, CN=CA tijelo/emailAddress=ca@mail.com
        Validity
            Not Before: Apr 27 12:22:36 2021 GMT
            Not After : Apr 27 12:22:36 2022 GMT
        Subject: C=BA, ST=RS, O=Elektrotehnicki fakultet, OU=ETF, CN=korisnik2/emailAddress=korisnik2@email.com
        Subject Public Key Info:
            Public Key Algorithm: rsaEncryption
                RSA Public-Key: (2048 bit)
                Modulus:
                    00:d1:1d:40:98:75:90:4d:c1:8f:67:5e:1c:9f:2c:
                    ea:c1:b8:89:35:c0:e9:9f:fe:4b:3a:01:fd:59:38:
                    33:8a:9e:25:ac:d4:81:ff:a2:f1:9b:8d:04:8b:81:
                    cd:9e:aa:54:81:93:10:6b:ec:13:37:6e:4e:92:c7:
                    b6:fd:ae:11:04:45:6f:68:bf:da:f9:23:e7:fa:42:
                    75:46:08:83:6d:e6:89:1b:d7:01:2d:ce:38:07:6f:
                    e9:f8:42:14:41:36:cf:3b:14:c8:85:37:7c:37:2b:
                    3e:ef:f5:f2:aa:da:04:8c:56:8c:f3:9d:7c:6f:bc:
                    f7:6b:81:17:e6:bb:9e:c8:d6:16:17:24:c1:c2:c4:
                    c6:93:20:9a:fe:9b:d8:6e:74:d9:5a:30:57:f2:b1:
                    2f:39:5f:30:c9:13:6d:f0:ca:9f:58:0a:63:6a:82:
                    b2:a9:0f:50:ac:13:3c:9e:d1:5b:47:42:72:21:a9:
                    06:73:1b:fe:35:a3:98:5e:d9:c2:3e:14:5a:72:11:
                    9f:26:f4:00:55:cb:4f:ad:88:c4:7b:ae:dc:2f:f7:
                    b7:88:6b:dd:67:4e:37:51:47:4d:c4:4b:bf:2c:05:
                    b9:0d:bc:8b:b1:4c:73:ed:d8:29:24:ca:87:ba:cc:
                    0b:59:c3:40:64:07:b4:33:5c:a6:7f:77:62:39:93:
                    77:2f
                Exponent: 65537 (0x10001)
        X509v3 extensions:
            X509v3 Basic Constraints: 
                CA:FALSE
            X509v3 Key Usage: 
                Digital Signature
            X509v3 Extended Key Usage: 
                TLS Web Client Authentication, TLS Web Server Authentication
            Netscape Comment: 
                OpenSSL Generated Certificate
            X509v3 Subject Key Identifier: 
                EC:1B:E3:A1:55:24:66:6E:7C:E8:2C:21:29:9E:5C:73:7C:6C:45:6A
            X509v3 Authority Key Identifier: 
                keyid:4F:F1:74:AE:94:B7:05:2B:FC:B9:B4:4F:51:32:8F:2C:CE:18:0F:27

            X509v3 CRL Distribution Points: 

                Full Name:
                  URI:http://192.168.21.89/rootcrl.pem

    Signature Algorithm: sha1WithRSAEncryption
         7c:23:74:84:4f:3d:12:bb:e5:10:d2:75:92:3f:7d:82:7a:f5:
         bf:4f:84:43:e3:78:78:fd:20:86:49:a1:c7:31:12:cd:3b:2c:
         6b:fb:d2:48:e8:f5:1a:43:e9:31:98:7e:37:58:cb:c0:a8:3b:
         ab:12:bd:71:ef:5d:e8:2b:81:49:ed:fa:38:30:97:ca:dc:31:
         86:5e:63:48:dd:23:76:8e:2e:6d:55:0e:db:3d:64:72:08:59:
         8b:90:8f:79:53:ec:e1:a8:a1:68:68:1b:ee:e7:e9:2f:a3:24:
         c0:89:a8:6d:f2:65:04:c9:9d:03:89:6a:c9:28:29:fc:40:ab:
         61:ed:17:3a:5c:36:98:79:7b:9b:ad:2e:a9:15:b8:b4:36:a0:
         58:ad:1d:93:3f:59:aa:6a:c4:af:19:ab:a8:0b:f0:0b:3a:e5:
         83:ac:d9:2d:ce:e5:0c:6e:f0:6e:32:58:cc:77:05:85:75:21:
         8f:52:1d:90:80:1c:c0:f2:11:55:cf:ba:f0:e2:be:c4:04:04:
         b6:ec:82:2c:bc:ba:31:cd:d2:57:fc:98:a6:ac:67:4b:ca:5f:
         38:35:97:36:26:01:a0:b3:e7:09:6d:ed:dd:d6:d2:58:c5:8f:
         d3:b2:84:50:1a:84:02:92:c1:cc:6d:bb:d1:4e:e7:94:46:4d:
         5c:93:40:8d
-----BEGIN CERTIFICATE-----
MIIEbDCCA1SgAwIBAgIBAjANBgkqhkiG9w0BAQUFADCBkDELMAkGA1UEBhMCQkEx
CzAJBgNVBAgTAlJTMRMwEQYDVQQHEwpCYW5qYSBMdWthMSEwHwYDVQQKExhFbGVr
dHJvdGVobmlja2kgZmFrdWx0ZXQxDDAKBgNVBAsTA0VURjESMBAGA1UEAxMJQ0Eg
dGlqZWxvMRowGAYJKoZIhvcNAQkBFgtjYUBtYWlsLmNvbTAeFw0yMTA0MjcxMjIy
MzZaFw0yMjA0MjcxMjIyMzZaMIGDMQswCQYDVQQGEwJCQTELMAkGA1UECBMCUlMx
ITAfBgNVBAoTGEVsZWt0cm90ZWhuaWNraSBmYWt1bHRldDEMMAoGA1UECxMDRVRG
MRIwEAYDVQQDEwlrb3Jpc25pazIxIjAgBgkqhkiG9w0BCQEWE2tvcmlzbmlrMkBl
bWFpbC5jb20wggEiMA0GCSqGSIb3DQEBAQUAA4IBDwAwggEKAoIBAQDRHUCYdZBN
wY9nXhyfLOrBuIk1wOmf/ks6Af1ZODOKniWs1IH/ovGbjQSLgc2eqlSBkxBr7BM3
bk6Sx7b9rhEERW9ov9r5I+f6QnVGCINt5okb1wEtzjgHb+n4QhRBNs87FMiFN3w3
Kz7v9fKq2gSMVozznXxvvPdrgRfmu57I1hYXJMHCxMaTIJr+m9hudNlaMFfysS85
XzDJE23wyp9YCmNqgrKpD1CsEzye0VtHQnIhqQZzG/41o5he2cI+FFpyEZ8m9ABV
y0+tiMR7rtwv97eIa91nTjdRR03ES78sBbkNvIuxTHPt2Ckkyoe6zAtZw0BkB7Qz
XKZ/d2I5k3cvAgMBAAGjgdswgdgwCQYDVR0TBAIwADALBgNVHQ8EBAMCB4AwHQYD
VR0lBBYwFAYIKwYBBQUHAwIGCCsGAQUFBwMBMCwGCWCGSAGG+EIBDQQfFh1PcGVu
U1NMIEdlbmVyYXRlZCBDZXJ0aWZpY2F0ZTAdBgNVHQ4EFgQU7BvjoVUkZm586Cwh
KZ5cc3xsRWowHwYDVR0jBBgwFoAUT/F0rpS3BSv8ubRPUTKPLM4YDycwMQYDVR0f
BCowKDAmoCSgIoYgaHR0cDovLzE5Mi4xNjguMjEuODkvcm9vdGNybC5wZW0wDQYJ
KoZIhvcNAQEFBQADggEBAHwjdIRPPRK75RDSdZI/fYJ69b9PhEPjeHj9IIZJoccx
Es07LGv70kjo9RpD6TGYfjdYy8CoO6sSvXHvXegrgUnt+jgwl8rcMYZeY0jdI3aO
Lm1VDts9ZHIIWYuQj3lT7OGooWhoG+7n6S+jJMCJqG3yZQTJnQOJaskoKfxAq2Ht
FzpcNph5e5utLqkVuLQ2oFitHZM/WapqxK8Zq6gL8As65YOs2S3O5Qxu8G4yWMx3
BYV1IY9SHZCAHMDyEVXPuvDivsQEBLbsgiy8ujHN0lf8mKasZ0vKXzg1lzYmAaCz
5wlt7d3W0ljFj9OyhFAahAKSwcxtu9FO55RGTVyTQI0=
-----END CERTIFICATE-----
