Certificate:
    Data:
        Version: 3 (0x2)
        Serial Number: 1 (0x1)
        Signature Algorithm: sha1WithRSAEncryption
        Issuer: C=BA, ST=RS, L=Banja Luka, O=Elektrotehnicki fakultet, OU=ETF, CN=CA tijelo/emailAddress=ca@email.com
        Validity
            Not Before: Feb  4 20:41:35 2021 GMT
            Not After : Feb  4 20:41:35 2022 GMT
        Subject: C=BA, ST=RS, O=Elektrotehnicki fakultet, OU=ETF, CN=ognjen/emailAddress=ognjen@email.com
        Subject Public Key Info:
            Public Key Algorithm: rsaEncryption
                RSA Public-Key: (2048 bit)
                Modulus:
                    00:c0:3d:87:15:8b:19:2d:68:20:25:8d:71:d2:3b:
                    36:97:60:e8:b9:b1:b2:94:d8:0d:32:ef:27:56:b9:
                    e0:8e:37:c2:08:c1:c3:87:13:43:a6:45:01:b2:b0:
                    59:20:e5:a1:45:42:56:67:74:97:2a:c9:1d:8d:65:
                    98:84:52:ce:07:8a:f7:3f:58:9d:3f:11:6c:22:f5:
                    c0:6c:13:ff:5f:e7:60:2b:2c:6e:b0:01:d7:c8:a5:
                    5a:2f:e0:f0:69:09:22:18:d2:30:cd:43:e7:1b:f6:
                    ce:be:8b:1b:df:fb:4b:b0:e1:a2:85:1e:21:3f:9f:
                    83:23:e4:7f:62:59:6c:55:81:07:69:8c:81:1d:63:
                    39:85:46:86:07:67:dd:77:72:5d:35:ca:6e:ba:4c:
                    ba:40:44:c1:14:2e:83:f7:42:24:fa:4f:d9:b7:4c:
                    e0:f8:56:bc:4d:d8:41:f5:03:aa:3d:b4:f0:a5:ed:
                    5d:84:f9:4e:54:f0:7a:47:0c:d5:a9:5f:dc:17:8b:
                    ac:96:9e:de:dd:16:77:d9:ba:cd:6c:ee:1e:3a:cf:
                    b7:96:6d:cb:c5:f7:9b:0a:f5:b0:37:c7:aa:f1:31:
                    55:a4:d4:77:a5:d5:54:0a:09:af:7f:e5:49:b9:fa:
                    0f:62:cc:09:ae:e7:0b:fc:d1:00:0e:ed:50:fb:00:
                    ee:63
                Exponent: 65537 (0x10001)
        X509v3 extensions:
            X509v3 Basic Constraints: 
                CA:FALSE
            X509v3 Key Usage: 
                Digital Signature
            X509v3 Extended Key Usage: 
                TLS Web Client Authentication, TLS Web Server Authentication
            Netscape Comment: 
                OpenSSL Generated Certificate
            X509v3 Subject Key Identifier: 
                59:77:B7:9E:14:69:73:6A:D7:6E:25:AF:09:41:7B:2B:82:CF:53:1C
            X509v3 Authority Key Identifier: 
                keyid:FF:18:C3:94:05:19:A4:72:FA:A3:84:9F:B9:9F:25:C0:3E:E8:C8:04

            X509v3 CRL Distribution Points: 

                Full Name:
                  URI:http://192.168.21.89/rootcrl.pem

    Signature Algorithm: sha1WithRSAEncryption
         06:35:c7:ed:d7:ff:81:b5:64:e1:4a:23:4a:26:83:31:99:2c:
         b2:39:21:0b:6d:32:76:1f:41:ef:d0:81:ac:c6:f3:36:21:c6:
         a6:3b:11:4f:ab:da:33:da:34:07:37:3c:04:fc:d3:1d:81:f7:
         66:ab:a6:dc:f9:0c:50:d8:c3:13:01:3e:77:36:40:95:ea:02:
         3b:5d:aa:cb:15:a1:4e:49:1c:58:c8:b4:54:5b:76:c8:ca:28:
         2e:1c:12:05:42:1f:7a:ff:c5:c7:23:b5:67:a8:07:12:c8:09:
         d3:09:71:b3:62:a9:3c:1f:6e:ca:47:b8:7f:d5:bc:5f:50:fe:
         26:78:c0:67:38:1a:e6:03:2a:29:aa:8f:55:be:c3:38:ef:83:
         27:46:fc:80:cb:49:67:ad:73:d7:f5:20:41:02:dc:18:dd:10:
         49:51:7d:73:9f:c5:93:20:fd:b9:50:ae:f6:50:22:2a:c0:03:
         19:bb:d7:55:8c:9a:2e:50:00:04:71:e6:d0:91:e3:5e:4c:e8:
         86:6d:1e:28:f4:8b:f8:fb:f5:82:49:24:79:54:8a:52:da:8e:
         12:0f:5c:a7:cb:ac:7c:f1:83:87:a3:8d:17:04:5e:fc:0c:ac:
         da:58:4a:1e:dc:e7:df:e3:15:26:29:26:16:c8:2b:05:9f:37:
         bb:c0:4e:24
-----BEGIN CERTIFICATE-----
MIIEZjCCA06gAwIBAgIBATANBgkqhkiG9w0BAQUFADCBkTELMAkGA1UEBhMCQkEx
CzAJBgNVBAgTAlJTMRMwEQYDVQQHEwpCYW5qYSBMdWthMSEwHwYDVQQKExhFbGVr
dHJvdGVobmlja2kgZmFrdWx0ZXQxDDAKBgNVBAsTA0VURjESMBAGA1UEAxMJQ0Eg
dGlqZWxvMRswGQYJKoZIhvcNAQkBFgxjYUBlbWFpbC5jb20wHhcNMjEwMjA0MjA0
MTM1WhcNMjIwMjA0MjA0MTM1WjB9MQswCQYDVQQGEwJCQTELMAkGA1UECBMCUlMx
ITAfBgNVBAoTGEVsZWt0cm90ZWhuaWNraSBmYWt1bHRldDEMMAoGA1UECxMDRVRG
MQ8wDQYDVQQDEwZvZ25qZW4xHzAdBgkqhkiG9w0BCQEWEG9nbmplbkBlbWFpbC5j
b20wggEiMA0GCSqGSIb3DQEBAQUAA4IBDwAwggEKAoIBAQDAPYcVixktaCAljXHS
OzaXYOi5sbKU2A0y7ydWueCON8IIwcOHE0OmRQGysFkg5aFFQlZndJcqyR2NZZiE
Us4Hivc/WJ0/EWwi9cBsE/9f52ArLG6wAdfIpVov4PBpCSIY0jDNQ+cb9s6+ixvf
+0uw4aKFHiE/n4Mj5H9iWWxVgQdpjIEdYzmFRoYHZ913cl01ym66TLpARMEULoP3
QiT6T9m3TOD4VrxN2EH1A6o9tPCl7V2E+U5U8HpHDNWpX9wXi6yWnt7dFnfZus1s
7h46z7eWbcvF95sK9bA3x6rxMVWk1Hel1VQKCa9/5Um5+g9izAmu5wv80QAO7VD7
AO5jAgMBAAGjgdswgdgwCQYDVR0TBAIwADALBgNVHQ8EBAMCB4AwHQYDVR0lBBYw
FAYIKwYBBQUHAwIGCCsGAQUFBwMBMCwGCWCGSAGG+EIBDQQfFh1PcGVuU1NMIEdl
bmVyYXRlZCBDZXJ0aWZpY2F0ZTAdBgNVHQ4EFgQUWXe3nhRpc2rXbiWvCUF7K4LP
UxwwHwYDVR0jBBgwFoAU/xjDlAUZpHL6o4SfuZ8lwD7oyAQwMQYDVR0fBCowKDAm
oCSgIoYgaHR0cDovLzE5Mi4xNjguMjEuODkvcm9vdGNybC5wZW0wDQYJKoZIhvcN
AQEFBQADggEBAAY1x+3X/4G1ZOFKI0omgzGZLLI5IQttMnYfQe/QgazG8zYhxqY7
EU+r2jPaNAc3PAT80x2B92arptz5DFDYwxMBPnc2QJXqAjtdqssVoU5JHFjItFRb
dsjKKC4cEgVCH3r/xccjtWeoBxLICdMJcbNiqTwfbspHuH/VvF9Q/iZ4wGc4GuYD
Kimqj1W+wzjvgydG/IDLSWetc9f1IEEC3BjdEElRfXOfxZMg/blQrvZQIirAAxm7
11WMmi5QAARx5tCR415M6IZtHij0i/j79YJJJHlUilLajhIPXKfLrHzxg4ejjRcE
XvwMrNpYSh7c59/jFSYpJhbIKwWfN7vATiQ=
-----END CERTIFICATE-----
